; Function Attrs: null_pointer_is_valid sspstrong uwtable
define internal i32 @dissect_mpeg(ptr noundef %0, ptr noundef %1, ptr noundef %2, ptr readnone captures(none) %3) #0 {
  %5 = alloca ptr, align 8
  call void @llvm.lifetime.start.p0(i64 8, ptr nonnull %5) #3
  %6 = load ptr, ptr @heur_subdissector_list, align 8
  %7 = call zeroext i1 @dissector_try_heuristic(ptr noundef %6, ptr noundef %0, ptr noundef %1, ptr noundef %2, ptr noundef nonnull %5, ptr noundef null)
  br i1 %7, label %14, label %8

8:                                                ; preds = %4
  %9 = getelementptr inbounds nuw i8, ptr %1, i64 8
  %10 = load ptr, ptr %9, align 8
  call void @col_set_str(ptr noundef %10, i32 noundef 35, ptr noundef nonnull @.str.187)
  %11 = load ptr, ptr %9, align 8
  call void @col_clear(ptr noundef %11, i32 noundef 25)
  %12 = load i32, ptr @proto_mpeg, align 4
  %13 = call ptr @proto_tree_add_item(ptr noundef %2, i32 noundef %12, ptr noundef %0, i32 noundef 0, i32 noundef -1, i32 noundef 0)
  br label %14

14:                                               ; preds = %8, %4
  %15 = call i32 @tvb_captured_length(ptr noundef %0)
  call void @llvm.lifetime.end.p0(i64 8, ptr nonnull %5) #3
  ret i32 %15
}